; Function Attrs: nounwind uwtable
define dso_local { i64, ptr } @stack_popn(ptr noundef captures(none) %0) local_unnamed_addr #0 {
  %2 = getelementptr inbounds nuw i8, ptr %0, i64 56
  %3 = getelementptr inbounds nuw i8, ptr %0, i64 76
  %4 = load i32, ptr %3, align 4, !tbaa !4
  %.val = load ptr, ptr %2, align 8, !tbaa !17
  %5 = sext i32 %4 to i64
  %6 = getelementptr inbounds i8, ptr %.val, i64 %5
  %.sroa.09.0.copyload = load i64, ptr %6, align 8
  %.sroa.2.0..0..sroa_idx = getelementptr inbounds nuw i8, ptr %6, i64 8
  %.sroa.2.0.copyload = load ptr, ptr %.sroa.2.0..0..sroa_idx, align 8, !tbaa !19
  %7 = getelementptr i8, ptr %0, i64 68
  %.val10 = load i32, ptr %7, align 4, !tbaa !15
  %.not = icmp eq i32 %4, %.val10
  br i1 %.not, label %.thread, label %11

.thread:                                          ; preds = %1
  %8 = getelementptr inbounds i8, ptr %.val, i64 %5
  %9 = getelementptr inbounds i8, ptr %8, i64 -4
  %10 = load i32, ptr %9, align 4, !tbaa !18
  br label %19

11:                                               ; preds = %1
  %12 = tail call { i64, ptr } @jv_null() #13
  %13 = extractvalue { i64, ptr } %12, 0
  %14 = extractvalue { i64, ptr } %12, 1
  store i64 %13, ptr %6, align 8
  store ptr %14, ptr %.sroa.2.0..0..sroa_idx, align 8, !tbaa !19
  %.pre = load i32, ptr %3, align 4, !tbaa !4
  %.val.i.pre = load ptr, ptr %2, align 8, !tbaa !17
  %.pre12 = load i32, ptr %7, align 4, !tbaa !15
  %.pre13 = sext i32 %.pre to i64
  %15 = getelementptr inbounds i8, ptr %.val.i.pre, i64 %.pre13
  %16 = getelementptr inbounds i8, ptr %15, i64 -4
  %17 = load i32, ptr %16, align 4, !tbaa !18
  %18 = icmp eq i32 %.pre, %.pre12
  br i1 %18, label %19, label %stack_pop_block.exit

19:                                               ; preds = %.thread, %11
  %20 = phi i32 [ %10, %.thread ], [ %17, %11 ]
  %21 = phi i32 [ %4, %.thread ], [ %.pre12, %11 ]
  %22 = add nsw i32 %21, 24
  store i32 %22, ptr %7, align 4, !tbaa !15
  br label %stack_pop_block.exit

stack_pop_block.exit:                             ; preds = %11, %19
  %23 = phi i32 [ %17, %11 ], [ %20, %19 ]
  store i32 %23, ptr %3, align 4, !tbaa !4
  %.fca.0.insert = insertvalue { i64, ptr } poison, i64 %.sroa.09.0.copyload, 0
  %.fca.1.insert = insertvalue { i64, ptr } %.fca.0.insert, ptr %.sroa.2.0.copyload, 1
  ret { i64, ptr } %.fca.1.insert
}